; Function Attrs: nofree norecurse nosync nounwind memory(read, argmem: readwrite, inaccessiblemem: none) uwtable
define internal void @yuv2yvyu422_2_c(ptr readnone captures(none) %0, ptr noundef readonly captures(none) %1, ptr noundef readonly captures(none) %2, ptr noundef readonly captures(none) %3, ptr readnone captures(none) %4, ptr noundef writeonly captures(none) %5, i32 noundef %6, i32 noundef %7, i32 noundef %8, i32 %9) #3 {
  %11 = load ptr, ptr %1, align 8, !tbaa !43
  %12 = getelementptr inbounds nuw i8, ptr %1, i64 8
  %13 = load ptr, ptr %12, align 8, !tbaa !43
  %14 = load ptr, ptr %2, align 8, !tbaa !43
  %15 = getelementptr inbounds nuw i8, ptr %2, i64 8
  %16 = load ptr, ptr %15, align 8, !tbaa !43
  %17 = load ptr, ptr %3, align 8, !tbaa !43
  %18 = getelementptr inbounds nuw i8, ptr %3, i64 8
  %19 = load ptr, ptr %18, align 8, !tbaa !43
  %20 = sub nsw i32 4096, %7
  %21 = sub nsw i32 4096, %8
  %22 = add nsw i32 %6, 1
  %23 = ashr i32 %22, 1
  %24 = icmp sgt i32 %23, 0
  br i1 %24, label %.lr.ph.preheader, label %yuv2422_2_c_template.exit

.lr.ph.preheader:                                 ; preds = %10
  %wide.trip.count = zext nneg i32 %23 to i64
  br label %.lr.ph

.lr.ph:                                           ; preds = %.lr.ph.preheader, %76
  %indvars.iv = phi i64 [ 0, %.lr.ph.preheader ], [ %indvars.iv.next, %76 ]
  %25 = shl nuw nsw i64 %indvars.iv, 1
  %26 = getelementptr inbounds nuw i16, ptr %11, i64 %25
  %27 = load i16, ptr %26, align 2, !tbaa !39
  %28 = sext i16 %27 to i32
  %29 = mul nsw i32 %20, %28
  %30 = getelementptr inbounds nuw i16, ptr %13, i64 %25
  %31 = load i16, ptr %30, align 2, !tbaa !39
  %32 = sext i16 %31 to i32
  %33 = mul nsw i32 %7, %32
  %34 = add nsw i32 %33, %29
  %35 = ashr i32 %34, 19
  %36 = or disjoint i64 %25, 1
  %37 = getelementptr inbounds nuw i16, ptr %11, i64 %36
  %38 = load i16, ptr %37, align 2, !tbaa !39
  %39 = sext i16 %38 to i32
  %40 = mul nsw i32 %20, %39
  %41 = getelementptr inbounds nuw i16, ptr %13, i64 %36
  %42 = load i16, ptr %41, align 2, !tbaa !39
  %43 = sext i16 %42 to i32
  %44 = mul nsw i32 %7, %43
  %45 = add nsw i32 %44, %40
  %46 = ashr i32 %45, 19
  %47 = getelementptr inbounds nuw i16, ptr %14, i64 %indvars.iv
  %48 = load i16, ptr %47, align 2, !tbaa !39
  %49 = sext i16 %48 to i32
  %50 = mul nsw i32 %21, %49
  %51 = getelementptr inbounds nuw i16, ptr %16, i64 %indvars.iv
  %52 = load i16, ptr %51, align 2, !tbaa !39
  %53 = sext i16 %52 to i32
  %54 = mul nsw i32 %8, %53
  %55 = add nsw i32 %54, %50
  %56 = ashr i32 %55, 19
  %57 = getelementptr inbounds nuw i16, ptr %17, i64 %indvars.iv
  %58 = load i16, ptr %57, align 2, !tbaa !39
  %59 = sext i16 %58 to i32
  %60 = mul nsw i32 %21, %59
  %61 = getelementptr inbounds nuw i16, ptr %19, i64 %indvars.iv
  %62 = load i16, ptr %61, align 2, !tbaa !39
  %63 = sext i16 %62 to i32
  %64 = mul nsw i32 %8, %63
  %65 = add nsw i32 %64, %60
  %66 = ashr i32 %65, 19
  %67 = or i32 %46, %35
  %68 = or i32 %67, %56
  %69 = or i32 %68, %66
  %70 = and i32 %69, 256
  %.not.i = icmp eq i32 %70, 0
  br i1 %.not.i, label %76, label %71

71:                                               ; preds = %.lr.ph
  %.not.i91.i = icmp ult i32 %35, 256
  %isnotneg.i92.i = icmp sgt i32 %35, -1
  %72 = sext i1 %isnotneg.i92.i to i32
  %.0.i93.i = select i1 %.not.i91.i, i32 %35, i32 %72
  %.not.i88.i = icmp ult i32 %46, 256
  %isnotneg.i89.i = icmp sgt i32 %46, -1
  %73 = sext i1 %isnotneg.i89.i to i32
  %.0.i90.i = select i1 %.not.i88.i, i32 %46, i32 %73
  %.not.i85.i = icmp ult i32 %56, 256
  %isnotneg.i86.i = icmp sgt i32 %56, -1
  %74 = sext i1 %isnotneg.i86.i to i32
  %.0.i87.i = select i1 %.not.i85.i, i32 %56, i32 %74
  %.not.i.i = icmp ult i32 %66, 256
  %isnotneg.i.i = icmp sgt i32 %66, -1
  %75 = sext i1 %isnotneg.i.i to i32
  %.0.i.i = select i1 %.not.i.i, i32 %66, i32 %75
  br label %76

76:                                               ; preds = %71, %.lr.ph
  %.082.i = phi i32 [ %.0.i93.i, %71 ], [ %35, %.lr.ph ]
  %.081.i = phi i32 [ %.0.i90.i, %71 ], [ %46, %.lr.ph ]
  %.080.i = phi i32 [ %.0.i87.i, %71 ], [ %56, %.lr.ph ]
  %.0.i = phi i32 [ %.0.i.i, %71 ], [ %66, %.lr.ph ]
  %77 = trunc i32 %.082.i to i8
  %78 = shl nsw i64 %indvars.iv, 2
  %79 = getelementptr inbounds nuw i8, ptr %5, i64 %78
  store i8 %77, ptr %79, align 1, !tbaa !41
  %80 = trunc i32 %.0.i to i8
  %81 = getelementptr inbounds nuw i8, ptr %79, i64 1
  store i8 %80, ptr %81, align 1, !tbaa !41
  %82 = trunc i32 %.081.i to i8
  %83 = getelementptr inbounds nuw i8, ptr %79, i64 2
  store i8 %82, ptr %83, align 1, !tbaa !41
  %84 = trunc i32 %.080.i to i8
  %85 = getelementptr inbounds nuw i8, ptr %79, i64 3
  store i8 %84, ptr %85, align 1, !tbaa !41
  %indvars.iv.next = add nuw nsw i64 %indvars.iv, 1
  %exitcond.not = icmp eq i64 %indvars.iv.next, %wide.trip.count
  br i1 %exitcond.not, label %yuv2422_2_c_template.exit, label %.lr.ph, !llvm.loop !133

yuv2422_2_c_template.exit:                        ; preds = %76, %10
  ret void
}